; Function Attrs: null_pointer_is_valid sspstrong uwtable
define internal noundef ptr @nat64_prefix_copy_cb(ptr noundef returned writeonly captures(ret: address, provenance) initializes((0, 9), (12, 16)) %0, ptr noundef readonly captures(none) %1, i64 %2) #0 {
  %4 = load ptr, ptr %1, align 8
  %5 = tail call noalias ptr @g_strdup(ptr noundef %4)
  store ptr %5, ptr %0, align 8
  %6 = getelementptr inbounds nuw i8, ptr %1, i64 8
  %7 = load i8, ptr %6, align 8
  %8 = getelementptr inbounds nuw i8, ptr %0, i64 8
  store i8 %7, ptr %8, align 8
  %9 = getelementptr inbounds nuw i8, ptr %1, i64 12
  %10 = load i32, ptr %9, align 4
  %11 = getelementptr inbounds nuw i8, ptr %0, i64 12
  store i32 %10, ptr %11, align 4
  ret ptr %0
}